Microchip MPLAB XC8 Compiler V2.32

Linker command line:

-W-3 --edf=D:\Program Files\Microchip\xc8\v2.32\pic\dat\en_msgs.txt -cn \
  -h+dist/default/debug\TESTE.X.debug.sym \
  --cmf=dist/default/debug\TESTE.X.debug.cmf -z -Q16F18875 \
  -oC:\Users\filip\AppData\Local\Temp\xcAse38.4 --defsym=__MPLAB_BUILD=1 \
  -Mdist/default/debug/TESTE.X.debug.map -E1 -ver=XC8 Compiler --acfsm=1493 \
  -ASTACK=020DDh-023EFh -pstack=STACK -ACODE=00h-07FFhx4 \
  -ASTRCODE=00h-01FFFh -ASTRING=00h-0FFhx32 -ACONST=00h-0FFhx32 \
  -AENTRY=00h-0FFhx32 -ACOMMON=070h-07Fh -ABANK0=020h-06Fh \
  -ABANK1=0A0h-0EFh -ABANK2=0120h-016Fh -ABANK3=01A0h-01EFh \
  -ABANK4=0220h-026Fh -ABANK5=02A0h-02EFh -ABANK6=0320h-036Fh \
  -ABANK7=03A0h-03EFh -ABANK8=0420h-046Fh -ABANK9=04A0h-04EFh \
  -ABANK10=0520h-056Fh -ABANK11=05A0h-05EFh -ABANK12=0620h-064Fh \
  -ABIGRAM=02000h-023EFh \
  -ARAM=020h-06Fh,0A0h-0EFh,0120h-016Fh,01A0h-01EFh,0220h-026Fh,02A0h-02EFh,0320h-036Fh,03A0h-03EFh,0420h-046Fh,04A0h-04EFh,0520h-056Fh,05A0h-05EFh,0620h-064Fh \
  -AABS1=020h-07Fh,0A0h-0EFh,0120h-016Fh,01A0h-01EFh,0220h-026Fh,02A0h-02EFh,0320h-036Fh,03A0h-03EFh,0420h-046Fh,04A0h-04EFh,0520h-056Fh,05A0h-05EFh,0620h-064Fh \
  -ASFR0=00h-01Fh -ASFR1=080h-09Fh -ASFR2=0100h-011Fh -ASFR3=0180h-019Fh \
  -ASFR4=0200h-021Fh -ASFR5=0280h-029Fh -ASFR6=0300h-031Fh \
  -ASFR7=0380h-039Fh -ASFR8=0400h-041Fh -ASFR9=0480h-049Fh \
  -ASFR10=0500h-051Fh -ASFR11=0580h-059Fh -ASFR12=0600h-061Fh \
  -ASFR13=0680h-06EFh -ASFR14=0700h-076Fh -ASFR15=0780h-07EFh \
  -ASFR16=0800h-086Fh -ASFR17=0880h-08EFh -ASFR18=0900h-096Fh \
  -ASFR19=0980h-09EFh -ASFR20=0A00h-0A6Fh -ASFR21=0A80h-0AEFh \
  -ASFR22=0B00h-0B6Fh -ASFR23=0B80h-0BEFh -ASFR24=0C00h-0C6Fh \
  -ASFR25=0C80h-0CEFh -ASFR26=0D00h-0D6Fh -ASFR27=0D80h-0DEFh \
  -ASFR28=0E00h-0E6Fh -ASFR29=0E80h-0EEFh -ASFR30=0F00h-0F6Fh \
  -ASFR31=0F80h-0FEFh -ACONFIG=08007h-0800Bh -DCONFIG=2 \
  -AIDLOC=08000h-08003h -DIDLOC=2 -AEEDATA=00h-0FFh/0F000h \
  -peeprom_data=EEDATA -DEEDATA=2 -DCODE=2 -DSTRCODE=2 -DSTRING=2 -DCONST=2 \
  -DENTRY=2 -preset_vec=00h,intentry=04h,init,end_init -ppowerup=CODE \
  -pcinit=CODE -pfunctab=ENTRY -k \
  C:\Users\filip\AppData\Local\Temp\xcAse38.o \
  dist/default/debug\TESTE.X.debug.o 

Object code version is 3.11

Machine type is 16F18875



                Name                               Link     Load   Length Selector   Space Scale
C:\Users\filip\AppData\Local\Temp\xcAse38.o
                end_init                             18       18        2        8       0
                reset_vec                             0        0        2        0       0
                config                             8007     8007        5        0       4
dist/default/debug\TESTE.X.debug.o
                cinit                                1A       1A       15        8       0
                intentry                              4        4       14        8       0
                config                             8007     8007        5        0       4
                text52                             16DD     16DD       12     2DBA       0
                text51                              87E      87E       28     10FC       0
                text50                              7FF      7FF        1        8       0
                text49                             1695     1695        D     2D2A       0
                text48                             16CC     16CC       11     2D98       0
                text47                             16AF     16AF        E     2D5E       0
                text45                             17A0     17A0       1F     2F40       0
                text44                              AC3      AC3       5A     1586       0
                text43                              1CD      1CD      18B        8       0
                text42                             16EF     16EF       13     2DDE       0
                text41                              A1A      A1A       53     1434       0
                text40                              D37      D37       D7     1A6E       0
                text39                              B77      B77       83     16EE       0
                text38                             1655     1655        8     2CAA       0
                text37                             1768     1768       1C     2ED0       0
                text36                             1665     1665        9     2CCA       0
                text35                             1732     1732       1B     2E64       0
                text34                             16A2     16A2        D     2D44       0
                text33                             168A     168A        B     2D14       0
                text32                             1702     1702       17     2E04       0
                text31                             1680     1680        A     2D00       0
                text30                             166E     166E        9     2CDC       0
                text29                              935      935       45     126A       0
                text28                             165D     165D        8     2CBA       0
                text27                             1677     1677        9     2CEE       0
                text26                             17DF     17DF       21     2FBE       0
                text25                              802      802       13     1004       0
                text24                              85A      85A       24     10B4       0
                text23                              BFA      BFA       8E     17F4       0
                text22                             16BD     16BD        F     2D7A       0
                text21                              745      745       B9        8       0
                text20                              8FE      8FE       37     11FC       0
                text19                              B1D      B1D       5A     163A       0
                text18                              4BC      4BC      150        8       0
                text17                             17BF     17BF       20     2F7E       0
                text16                             1719     1719       19     2E32       0
                text15                              815      815       22     102A       0
                text14                              C88      C88       AF     1910       0
                text13                              EFB      EFB      105     1DF6       0
                text12                              E0E      E0E       ED     1C1C       0
                text11                             1784     1784       1C     2F08       0
                text10                              7FE      7FE        1        8       0
                text9                               9C9      9C9       51     1392       0
                text8                               8A6      8A6       29     114C       0
                text7                              174D     174D       1B     2E9A       0
                text6                               A6D      A6D       56     14DA       0
                text5                               358      358      164        8       0
                text4                                2F       2F      19E        8       0
                text3                               8CF      8CF       2F     119E       0
                text2                               837      837       23     106E       0
                text1                               97A      97A       4F     12F4       0
                maintext                            60C      60C      139        8       0
                cstackBANK0                          20       20       50       20       1
                cstackCOMMON                         70       70        5       70       1
                cstackBANK1                          A0       A0       45       A0       1
                clrtext                            164F     164F        6     2C9E       0
                bssBANK2                            120      120       3D      120       1
                bssBANK1                             E9       E9        4       A0       1
                bssCOMMON                            75       75        4       70       1
                stringtext4                        182F     182F        5     3000       0
                stringtext3                        1828     1828        7     3000       0
                stringtext2                        1820     1820        8     3000       0
                nvBANK1                              E5       E5        4       A0       1
                stringtext1                        1800     1800       20     3000       0

TOTAL           Name                               Link     Load   Length     Space
        CLASS   STACK          

        CLASS   CODE           
                end_init                             18       18        2         0
                cinit                                1A       1A       15         0
                intentry                              4        4       14         0
                reset_vec                             0        0        2         0
                text52                             16DD     16DD       12         0
                text51                              87E      87E       28         0
                text50                              7FF      7FF        1         0
                text49                             1695     1695        D         0
                text48                             16CC     16CC       11         0
                text47                             16AF     16AF        E         0
                text45                             17A0     17A0       1F         0
                text44                              AC3      AC3       5A         0
                text43                              1CD      1CD      18B         0
                text42                             16EF     16EF       13         0
                text41                              A1A      A1A       53         0
                text40                              D37      D37       D7         0
                text39                              B77      B77       83         0
                text38                             1655     1655        8         0
                text37                             1768     1768       1C         0
                text36                             1665     1665        9         0
                text35                             1732     1732       1B         0
                text34                             16A2     16A2        D         0
                text33                             168A     168A        B         0
                text32                             1702     1702       17         0
                text31                             1680     1680        A         0
                text30                             166E     166E        9         0
                text29                              935      935       45         0
                text28                             165D     165D        8         0
                text27                             1677     1677        9         0
                text26                             17DF     17DF       21         0
                text25                              802      802       13         0
                text24                              85A      85A       24         0
                text23                              BFA      BFA       8E         0
                text22                             16BD     16BD        F         0
                text21                              745      745       B9         0
                text20                              8FE      8FE       37         0
                text19                              B1D      B1D       5A         0
                text18                              4BC      4BC      150         0
                text17                             17BF     17BF       20         0
                text16                             1719     1719       19         0
                text15                              815      815       22         0
                text14                              C88      C88       AF         0
                text13                              EFB      EFB      105         0
                text12                              E0E      E0E       ED         0
                text11                             1784     1784       1C         0
                text10                              7FE      7FE        1         0
                text9                               9C9      9C9       51         0
                text8                               8A6      8A6       29         0
                text7                              174D     174D       1B         0
                text6                               A6D      A6D       56         0
                text5                               358      358      164         0
                text4                                2F       2F      19E         0
                text3                               8CF      8CF       2F         0
                text2                               837      837       23         0
                text1                               97A      97A       4F         0
                maintext                            60C      60C      139         0
                clrtext                            164F     164F        6         0

        CLASS   STRCODE        
                stringtext4                        182F     182F        5         0
                stringtext3                        1828     1828        7         0
                stringtext2                        1820     1820        8         0
                stringtext1                        1800     1800       20         0

        CLASS   STRING         

        CLASS   CONST          

        CLASS   ENTRY          

        CLASS   COMMON         
                cstackCOMMON                         70       70        5         1
                bssCOMMON                            75       75        4         1

        CLASS   BANK0          
                cstackBANK0                          20       20       50         1

        CLASS   BANK1          
                cstackBANK1                          A0       A0       45         1
                bssBANK1                             E9       E9        4         1
                nvBANK1                              E5       E5        4         1

        CLASS   BANK2          
                bssBANK2                            120      120       3D         1

        CLASS   BANK3          

        CLASS   BANK4          

        CLASS   BANK5          

        CLASS   BANK6          

        CLASS   BANK7          

        CLASS   BANK8          

        CLASS   BANK9          

        CLASS   BANK10         

        CLASS   BANK11         

        CLASS   BANK12         

        CLASS   BIGRAM         

        CLASS   RAM            

        CLASS   ABS1           
                abs_s1                               7E       7E        2         1

        CLASS   SFR0           

        CLASS   SFR1           

        CLASS   SFR2           

        CLASS   SFR3           

        CLASS   SFR4           

        CLASS   SFR5           

        CLASS   SFR6           

        CLASS   SFR7           

        CLASS   SFR8           

        CLASS   SFR9           

        CLASS   SFR10          

        CLASS   SFR11          

        CLASS   SFR12          

        CLASS   SFR13          

        CLASS   SFR14          

        CLASS   SFR15          

        CLASS   SFR16          

        CLASS   SFR17          

        CLASS   SFR18          

        CLASS   SFR19          

        CLASS   SFR20          

        CLASS   SFR21          

        CLASS   SFR22          

        CLASS   SFR23          

        CLASS   SFR24          

        CLASS   SFR25          

        CLASS   SFR26          

        CLASS   SFR27          

        CLASS   SFR28          

        CLASS   SFR29          

        CLASS   SFR30          

        CLASS   SFR31          

        CLASS   CONFIG         
                config                             8007     8007        5         4

        CLASS   IDLOC          

        CLASS   EEDATA         

        CLASS   BANK31         

        CLASS   BANK30         

        CLASS   BANK29         

        CLASS   BANK28         

        CLASS   BANK27         

        CLASS   BANK26         

        CLASS   BANK25         

        CLASS   BANK24         

        CLASS   BANK23         

        CLASS   BANK22         

        CLASS   BANK21         

        CLASS   BANK20         

        CLASS   BANK19         

        CLASS   BANK18         

        CLASS   BANK17         

        CLASS   BANK16         

        CLASS   BANK15         

        CLASS   BANK14         

        CLASS   BANK13         



SEGMENTS        Name                           Load    Length   Top    Selector   Space  Class     Delta

                reset_vec                      000000  000002  000002         0       0  CODE        2
                intentry                       000004  0007FC  000800         8       0  CODE        2
                cstackBANK0                    000020  000050  000070        20       1  BANK0       1
                cstackCOMMON                   000070  000009  000079        70       1  COMMON      1
                cstackBANK1                    0000A0  00004D  0000ED        A0       1  BANK1       1
                bssBANK2                       000120  00003D  00015D       120       1  BANK2       1
                text25                         000802  000013  000815      1004       0  CODE        2
                text15                         000815  000022  000837      102A       0  CODE        2
                text2                          000837  000023  00085A      106E       0  CODE        2
                text24                         00085A  000024  00087E      10B4       0  CODE        2
                text51                         00087E  000028  0008A6      10FC       0  CODE        2
                text8                          0008A6  000029  0008CF      114C       0  CODE        2
                text3                          0008CF  00002F  0008FE      119E       0  CODE        2
                text20                         0008FE  000037  000935      11FC       0  CODE        2
                text29                         000935  000045  00097A      126A       0  CODE        2
                text1                          00097A  00004F  0009C9      12F4       0  CODE        2
                text9                          0009C9  000051  000A1A      1392       0  CODE        2
                text41                         000A1A  000053  000A6D      1434       0  CODE        2
                text6                          000A6D  000056  000AC3      14DA       0  CODE        2
                text44                         000AC3  00005A  000B1D      1586       0  CODE        2
                text19                         000B1D  00005A  000B77      163A       0  CODE        2
                text39                         000B77  000083  000BFA      16EE       0  CODE        2
                text23                         000BFA  00008E  000C88      17F4       0  CODE        2
                text14                         000C88  0000AF  000D37      1910       0  CODE        2
                text40                         000D37  0000D7  000E0E      1A6E       0  CODE        2
                text12                         000E0E  0000ED  000EFB      1C1C       0  CODE        2
                text13                         000EFB  000105  001000      1DF6       0  CODE        2
                clrtext                        00164F  000006  001655      2C9E       0  CODE        2
                text38                         001655  000008  00165D      2CAA       0  CODE        2
                text28                         00165D  000008  001665      2CBA       0  CODE        2
                text36                         001665  000009  00166E      2CCA       0  CODE        2
                text30                         00166E  000009  001677      2CDC       0  CODE        2
                text27                         001677  000009  001680      2CEE       0  CODE        2
                text31                         001680  00000A  00168A      2D00       0  CODE        2
                text33                         00168A  00000B  001695      2D14       0  CODE        2
                text49                         001695  00000D  0016A2      2D2A       0  CODE        2
                text34                         0016A2  00000D  0016AF      2D44       0  CODE        2
                text47                         0016AF  00000E  0016BD      2D5E       0  CODE        2
                text22                         0016BD  00000F  0016CC      2D7A       0  CODE        2
                text48                         0016CC  000011  0016DD      2D98       0  CODE        2
                text52                         0016DD  000012  0016EF      2DBA       0  CODE        2
                text42                         0016EF  000013  001702      2DDE       0  CODE        2
                text32                         001702  000017  001719      2E04       0  CODE        2
                text16                         001719  000019  001732      2E32       0  CODE        2
                text35                         001732  00001B  00174D      2E64       0  CODE        2
                text7                          00174D  00001B  001768      2E9A       0  CODE        2
                text37                         001768  00001C  001784      2ED0       0  CODE        2
                text11                         001784  00001C  0017A0      2F08       0  CODE        2
                text45                         0017A0  00001F  0017BF      2F40       0  CODE        2
                text17                         0017BF  000020  0017DF      2F7E       0  CODE        2
                text26                         0017DF  000021  001800      2FBE       0  CODE        2
                stringtext1                    001800  000034  001834      3000       0  STRCODE     2


UNUSED ADDRESS RANGES

        Name                Unused          Largest block    Delta
        BANK1            000ED-000EF               3           1
        BANK10           00520-0056F              50           1
        BANK11           005A0-005EF              50           1
        BANK12           00620-0064F              30           1
        BANK2            0015D-0016F              13           1
        BANK3            001A0-001EF              50           1
        BANK4            00220-0026F              50           1
        BANK5            002A0-002EF              50           1
        BANK6            00320-0036F              50           1
        BANK7            003A0-003EF              50           1
        BANK8            00420-0046F              50           1
        BANK9            004A0-004EF              50           1
        BIGRAM           02000-023EF             3F0           1
        CODE             00002-00003               2           2
                         00800-00801               2
                         01000-0164E             64F
                         01834-01FFF             7CC
        COMMON           00079-0007D               5           1
        CONST            00002-00003               2           2
                         00800-00801               2
                         01000-0164E             100
                         01834-01FFF             100
        EEDATA           0F000-0F0FF             100           2
        ENTRY            00002-00003               2           2
                         00800-00801               2
                         01000-0164E             100
                         01834-01FFF             100
        IDLOC            08000-08003               4           2
        RAM              000ED-000EF               3           1
                         0015D-0016F              13
                         001A0-001EF              50
                         00220-0026F              50
                         002A0-002EF              50
                         00320-0036F              50
                         003A0-003EF              50
                         00420-0046F              50
                         004A0-004EF              50
                         00520-0056F              50
                         005A0-005EF              50
                         00620-0064F              30
        SFR0             00000-0001F              20           1
        SFR1             00080-0009F              20           1
        SFR10            00500-0051F              20           1
        SFR11            00580-0059F              20           1
        SFR12            00600-0061F              20           1
        SFR13            00680-006EF              70           1
        SFR14            00700-0076F              70           1
        SFR15            00780-007EF              70           1
        SFR16            00800-0086F              70           1
        SFR17            00880-008EF              70           1
        SFR18            00900-0096F              70           1
        SFR19            00980-009EF              70           1
        SFR2             00100-0011F              20           1
        SFR20            00A00-00A6F              70           1
        SFR21            00A80-00AEF              70           1
        SFR22            00B00-00B6F              70           1
        SFR23            00B80-00BEF              70           1
        SFR24            00C00-00C6F              70           1
        SFR25            00C80-00CEF              70           1
        SFR26            00D00-00D6F              70           1
        SFR27            00D80-00DEF              70           1
        SFR28            00E00-00E6F              70           1
        SFR29            00E80-00EEF              70           1
        SFR3             00180-0019F              20           1
        SFR30            00F00-00F6F              70           1
        SFR31            00F80-00FEF              70           1
        SFR4             00200-0021F              20           1
        SFR5             00280-0029F              20           1
        SFR6             00300-0031F              20           1
        SFR7             00380-0039F              20           1
        SFR8             00400-0041F              20           1
        SFR9             00480-0049F              20           1
        STACK            020DD-023EF             313           1
        STRCODE          00002-00003               2           2
                         00800-00801               2
                         01000-0164E             64F
                         01834-01FFF             7CC
        STRING           00002-00003               2           2
                         00800-00801               2
                         01000-0164E             100
                         01834-01FFF             100

                                  Symbol Table

?_ADCC_GetSingleConversion                cstackCOMMON 00070
?_LCDbusy                                 cstackBANK0  00027
?___aodiv                                 cstackBANK0  00020
?___aomod                                 cstackBANK0  00020
?___wmul                                  cstackBANK0  00020
?_abs                                     cstackBANK0  00033
?_atoi                                    cstackBANK0  00026
?_dtoa                                    cstackBANK0  0003B
?_isdigit                                 cstackBANK0  00020
?_isspace                                 cstackBANK0  00020
?_operADDR                                cstackBANK0  00020
?_pad                                     cstackBANK0  00030
?_sprintf                                 cstackBANK1  000A6
?_strlen                                  cstackBANK0  00020
?_vfpfcnvrt                               cstackBANK0  00059
?_vfprintf                                cstackBANK1  000A0
ADCC_GetSingleConversion@channel          cstackCOMMON 00072
DATAEE_ReadByte@bAdd                      cstackBANK0  00020
DATAEE_WriteByte@GIEBitValue              cstackBANK0  00023
DATAEE_WriteByte@bAdd                     cstackBANK0  00020
DATAEE_WriteByte@bData                    cstackBANK0  00022
LCDchar@c                                 cstackBANK0  00028
LCDcmd@c                                  cstackBANK0  00028
LCDpos@c                                  cstackBANK0  00029
LCDpos@l                                  cstackBANK0  0002B
LCDpos@p                                  cstackBANK0  0002C
LCDrecv@hc                                cstackBANK0  00024
LCDrecv@lc                                cstackBANK0  00025
LCDrecv@mode                              cstackBANK0  00026
LCDsend2x4@c                              cstackBANK0  00025
LCDsend2x4@hc                             cstackBANK0  00026
LCDsend2x4@lc                             cstackBANK0  00027
LCDsend2x4@mode                           cstackBANK0  00022
LCDsend@c                                 cstackBANK0  00023
LCDstr@c                                  cstackBANK0  0002E
LCDstr@p                                  cstackBANK0  00029
TMR1_SetInterruptHandler@InterruptHandler cstackBANK0  00020
TMR1_WriteTimer@timerVal                  cstackCOMMON 00070
WriteI2C@data_out                         cstackBANK0  00021
_ADACCH                                   (abs)        00091
_ADACCL                                   (abs)        00090
_ADACQ                                    (abs)        0009D
_ADACT                                    (abs)        00099
_ADCAP                                    (abs)        0009B
_ADCC_GetSingleConversion                 text52       016DD
_ADCC_Initialize                          text32       01702
_ADCLK                                    (abs)        00098
_ADCNT                                    (abs)        0010C
_ADCON0                                   (abs)        00093
_ADCON0bits                               (abs)        00093
_ADCON1                                   (abs)        00094
_ADCON1bits                               (abs)        00094
_ADCON2                                   (abs)        00095
_ADCON2bits                               (abs)        00095
_ADCON3                                   (abs)        00096
_ADCON3bits                               (abs)        00096
_ADERRH                                   (abs)        00117
_ADERRL                                   (abs)        00116
_ADFLTRH                                  (abs)        00115
_ADFLTRL                                  (abs)        00114
_ADLTHH                                   (abs)        0010F
_ADLTHL                                   (abs)        0010E
_ADPCH                                    (abs)        0009E
_ADPRE                                    (abs)        0009C
_ADPREVH                                  (abs)        0008F
_ADPREVL                                  (abs)        0008E
_ADREF                                    (abs)        0009A
_ADRESH                                   (abs)        0008D
_ADRESL                                   (abs)        0008C
_ADRPT                                    (abs)        0010D
_ADSTAT                                   (abs)        00097
_ADSTATbits                               (abs)        00097
_ADSTPTH                                  (abs)        00113
_ADSTPTL                                  (abs)        00112
_ADUTHH                                   (abs)        00111
_ADUTHL                                   (abs)        00110
_ANSELA                                   (abs)        00F38
_ANSELB                                   (abs)        00F43
_ANSELC                                   (abs)        00F4E
_ANSELD                                   (abs)        00F59
_ANSELE                                   (abs)        00F64
_DATAEE_ReadByte                          text22       016BD
_DATAEE_WriteByte                         text24       0085A
_I2C1_CallbackReturnReset                 (abs)        00000
_I2C1_CallbackReturnStop                  (abs)        00000
_I2C1_DO_ADDRESS_NACK                     (abs)        00000
_I2C1_DO_IDLE                             (abs)        00000
_I2C1_DO_RCEN                             (abs)        00000
_I2C1_DO_RESET                            (abs)        00000
_I2C1_DO_RX                               (abs)        00000
_I2C1_DO_RX_ACK                           (abs)        00000
_I2C1_DO_RX_NACK_RESTART                  (abs)        00000
_I2C1_DO_RX_NACK_STOP                     (abs)        00000
_I2C1_DO_SEND_ADR_READ                    (abs)        00000
_I2C1_DO_SEND_ADR_WRITE                   (abs)        00000
_I2C1_DO_SEND_RESTART                     (abs)        00000
_I2C1_DO_SEND_RESTART_READ                (abs)        00000
_I2C1_DO_SEND_RESTART_WRITE               (abs)        00000
_I2C1_DO_SEND_STOP                        (abs)        00000
_I2C1_DO_TX                               (abs)        00000
_I2C1_DO_TX_EMPTY                         (abs)        00000
_I2C1_Initialize                          text31       01680
_I2C1_Status                              bssBANK2     00120
_INLVLA                                   (abs)        00F3C
_INLVLB                                   (abs)        00F47
_INLVLC                                   (abs)        00F52
_INLVLD                                   (abs)        00F5D
_INLVLE                                   (abs)        00F68
_INTCONbits                               (abs)        0000B
_INTERRUPT_InterruptManager               intentry     00004
_LATA                                     (abs)        00016
_LATAbits                                 (abs)        00016
_LATB                                     (abs)        00017
_LATC                                     (abs)        00018
_LATD                                     (abs)        00019
_LATE                                     (abs)        0001A
_LCDbusy                                  text42       016EF
_LCDchar                                  text36       01665
_LCDcmd                                   text38       01655
_LCDinit                                  text39       00B77
_LCDpos                                   text37       01768
_LCDrecv                                  text43       001CD
_LCDsend                                  text41       00A1A
_LCDsend2x4                               text40       00D37
_LCDstr                                   text35       01732
_NVMADRH                                  (abs)        0081B
_NVMADRL                                  (abs)        0081A
_NVMCON1bits                              (abs)        0081E
_NVMCON2                                  (abs)        0081F
_NVMDATH                                  (abs)        0081D
_NVMDATL                                  (abs)        0081C
_ODCONA                                   (abs)        00F3A
_ODCONB                                   (abs)        00F45
_ODCONC                                   (abs)        00F50
_ODCOND                                   (abs)        00F5B
_ODCONE                                   (abs)        00F66
_OSCCON1                                  (abs)        0088D
_OSCCON3                                  (abs)        0088F
_OSCEN                                    (abs)        00891
_OSCFRQ                                   (abs)        00893
_OSCILLATOR_Initialize                    text30       0166E
_OSCTUNE                                  (abs)        00892
_OpenI2C                                  text34       016A2
_PIE3bits                                 (abs)        00719
_PIE4bits                                 (abs)        0071A
_PIN_MANAGER_Initialize                   text29       00935
_PIR3bits                                 (abs)        0070F
_PIR4bits                                 (abs)        00710
_PMD0                                     (abs)        00796
_PMD1                                     (abs)        00797
_PMD2                                     (abs)        00798
_PMD3                                     (abs)        00799
_PMD4                                     (abs)        0079A
_PMD5                                     (abs)        0079B
_PMD_Initialize                           text28       0165D
_PORTAbits                                (abs)        0000C
_PORTBbits                                (abs)        0000D
_RC3PPS                                   (abs)        00F23
_RC4PPS                                   (abs)        00F24
_ReadI2C                                  text45       017A0
_S1                                       text33       0168A
_SLRCONA                                  (abs)        00F3B
_SLRCONB                                  (abs)        00F46
_SLRCONC                                  (abs)        00F51
_SLRCOND                                  (abs)        00F5C
_SLRCONE                                  (abs)        00F67
_SSP1ADD                                  (abs)        0018D
_SSP1BUF                                  (abs)        0018C
_SSP1CLKPPS                               (abs)        00EC5
_SSP1CON1                                 (abs)        00190
_SSP1CON1bits                             (abs)        00190
_SSP1CON2                                 (abs)        00191
_SSP1CON2bits                             (abs)        00191
_SSP1DATPPS                               (abs)        00EC6
_SSP1STAT                                 (abs)        0018F
_SSP1STATbits                             (abs)        0018F
_SYSTEM_Initialize                        text25       00802
_T1CLK                                    (abs)        00211
_T1CON                                    (abs)        0020E
_T1CONbits                                (abs)        0020E
_T1GATE                                   (abs)        00210
_T1GCON                                   (abs)        0020F
_T1GCONbits                               (abs)        0020F
_TMR1H                                    (abs)        0020D
_TMR1L                                    (abs)        0020C
_TMR1_CallBack                            text49       01695
_TMR1_DefaultInterruptHandler             text50       007FF
_TMR1_ISR                                 text47       016AF
_TMR1_Initialize                          text26       017DF
_TMR1_InterruptHandler                    nvBANK1      000E5
_TMR1_SetInterruptHandler                 text27       01677
_TMR1_WriteTimer                          text48       016CC
_TRISA                                    (abs)        00011
_TRISB                                    (abs)        00012
_TRISC                                    (abs)        00013
_TRISCbits                                (abs)        00013
_TRISD                                    (abs)        00014
_TRISE                                    (abs)        00015
_WPUA                                     (abs)        00F39
_WPUB                                     (abs)        00F44
_WPUC                                     (abs)        00F4F
_WPUD                                     (abs)        00F5A
_WPUE                                     (abs)        00F65
_WriteI2C                                 text44       00AC3
__Habs1                                   abs1         00000
__Hbank0                                  bank0        00000
__Hbank1                                  bank1        00000
__Hbank10                                 bank10       00000
__Hbank11                                 bank11       00000
__Hbank12                                 bank12       00000
__Hbank13                                 bank13       00000
__Hbank14                                 bank14       00000
__Hbank15                                 bank15       00000
__Hbank16                                 bank16       00000
__Hbank17                                 bank17       00000
__Hbank18                                 bank18       00000
__Hbank19                                 bank19       00000
__Hbank2                                  bank2        00000
__Hbank20                                 bank20       00000
__Hbank21                                 bank21       00000
__Hbank22                                 bank22       00000
__Hbank23                                 bank23       00000
__Hbank24                                 bank24       00000
__Hbank25                                 bank25       00000
__Hbank26                                 bank26       00000
__Hbank27                                 bank27       00000
__Hbank28                                 bank28       00000
__Hbank29                                 bank29       00000
__Hbank3                                  bank3        00000
__Hbank30                                 bank30       00000
__Hbank31                                 bank31       00000
__Hbank4                                  bank4        00000
__Hbank5                                  bank5        00000
__Hbank6                                  bank6        00000
__Hbank7                                  bank7        00000
__Hbank8                                  bank8        00000
__Hbank9                                  bank9        00000
__Hbigram                                 bigram       00000
__HbssBANK1                               bssBANK1     00000
__HbssBANK2                               bssBANK2     00000
__HbssCOMMON                              bssCOMMON    00000
__Hcinit                                  cinit        0002F
__Hclrtext                                clrtext      00000
__Hcode                                   code         00000
__Hcommon                                 common       00000
__Hconfig                                 config       0800C
__HcstackBANK0                            cstackBANK0  00000
__HcstackBANK1                            cstackBANK1  00000
__HcstackCOMMON                           cstackCOMMON 00000
__Heeprom_data                            eeprom_data  00000
__Hend_init                               end_init     0001A
__Hfunctab                                functab      00000
__Hinit                                   init         00018
__Hintentry                               intentry     00018
__Hmaintext                               maintext     00000
__HnvBANK1                                nvBANK1      00000
__Hpowerup                                powerup      00000
__Hram                                    ram          00000
__Hreset_vec                              reset_vec    00002
__Hsfr0                                   sfr0         00000
__Hsfr1                                   sfr1         00000
__Hsfr10                                  sfr10        00000
__Hsfr11                                  sfr11        00000
__Hsfr12                                  sfr12        00000
__Hsfr13                                  sfr13        00000
__Hsfr14                                  sfr14        00000
__Hsfr15                                  sfr15        00000
__Hsfr16                                  sfr16        00000
__Hsfr17                                  sfr17        00000
__Hsfr18                                  sfr18        00000
__Hsfr19                                  sfr19        00000
__Hsfr2                                   sfr2         00000
__Hsfr20                                  sfr20        00000
__Hsfr21                                  sfr21        00000
__Hsfr22                                  sfr22        00000
__Hsfr23                                  sfr23        00000
__Hsfr24                                  sfr24        00000
__Hsfr25                                  sfr25        00000
__Hsfr26                                  sfr26        00000
__Hsfr27                                  sfr27        00000
__Hsfr28                                  sfr28        00000
__Hsfr29                                  sfr29        00000
__Hsfr3                                   sfr3         00000
__Hsfr30                                  sfr30        00000
__Hsfr31                                  sfr31        00000
__Hsfr4                                   sfr4         00000
__Hsfr5                                   sfr5         00000
__Hsfr6                                   sfr6         00000
__Hsfr7                                   sfr7         00000
__Hsfr8                                   sfr8         00000
__Hsfr9                                   sfr9         00000
__Hspace_0                                (abs)        01834
__Hspace_1                                (abs)        0015D
__Hspace_2                                (abs)        00000
__Hspace_3                                (abs)        00000
__Hspace_4                                (abs)        10013
__Hstack                                  stack        00000
__Hstrings                                strings      00000
__Hstringtext1                            stringtext1  00000
__Hstringtext2                            stringtext2  00000
__Hstringtext3                            stringtext3  00000
__Hstringtext4                            stringtext4  00000
__Hstringtext5                            stringtext5  00000
__Htext                                   text         00000
__Labs1                                   abs1         00000
__Lbank0                                  bank0        00000
__Lbank1                                  bank1        00000
__Lbank10                                 bank10       00000
__Lbank11                                 bank11       00000
__Lbank12                                 bank12       00000
__Lbank13                                 bank13       00000
__Lbank14                                 bank14       00000
__Lbank15                                 bank15       00000
__Lbank16                                 bank16       00000
__Lbank17                                 bank17       00000
__Lbank18                                 bank18       00000
__Lbank19                                 bank19       00000
__Lbank2                                  bank2        00000
__Lbank20                                 bank20       00000
__Lbank21                                 bank21       00000
__Lbank22                                 bank22       00000
__Lbank23                                 bank23       00000
__Lbank24                                 bank24       00000
__Lbank25                                 bank25       00000
__Lbank26                                 bank26       00000
__Lbank27                                 bank27       00000
__Lbank28                                 bank28       00000
__Lbank29                                 bank29       00000
__Lbank3                                  bank3        00000
__Lbank30                                 bank30       00000
__Lbank31                                 bank31       00000
__Lbank4                                  bank4        00000
__Lbank5                                  bank5        00000
__Lbank6                                  bank6        00000
__Lbank7                                  bank7        00000
__Lbank8                                  bank8        00000
__Lbank9                                  bank9        00000
__Lbigram                                 bigram       00000
__LbssBANK1                               bssBANK1     00000
__LbssBANK2                               bssBANK2     00000
__LbssCOMMON                              bssCOMMON    00000
__Lcinit                                  cinit        0001A
__Lclrtext                                clrtext      00000
__Lcode                                   code         00000
__Lcommon                                 common       00000
__Lconfig                                 config       00000
__LcstackBANK0                            cstackBANK0  00000
__LcstackBANK1                            cstackBANK1  00000
__LcstackCOMMON                           cstackCOMMON 00000
__Leeprom_data                            eeprom_data  00000
__Lend_init                               end_init     00018
__Lfunctab                                functab      00000
__Linit                                   init         00018
__Lintentry                               intentry     00004
__Lmaintext                               maintext     00000
__LnvBANK1                                nvBANK1      00000
__Lpowerup                                powerup      00000
__Lram                                    ram          00000
__Lreset_vec                              reset_vec    00000
__Lsfr0                                   sfr0         00000
__Lsfr1                                   sfr1         00000
__Lsfr10                                  sfr10        00000
__Lsfr11                                  sfr11        00000
__Lsfr12                                  sfr12        00000
__Lsfr13                                  sfr13        00000
__Lsfr14                                  sfr14        00000
__Lsfr15                                  sfr15        00000
__Lsfr16                                  sfr16        00000
__Lsfr17                                  sfr17        00000
__Lsfr18                                  sfr18        00000
__Lsfr19                                  sfr19        00000
__Lsfr2                                   sfr2         00000
__Lsfr20                                  sfr20        00000
__Lsfr21                                  sfr21        00000
__Lsfr22                                  sfr22        00000
__Lsfr23                                  sfr23        00000
__Lsfr24                                  sfr24        00000
__Lsfr25                                  sfr25        00000
__Lsfr26                                  sfr26        00000
__Lsfr27                                  sfr27        00000
__Lsfr28                                  sfr28        00000
__Lsfr29                                  sfr29        00000
__Lsfr3                                   sfr3         00000
__Lsfr30                                  sfr30        00000
__Lsfr31                                  sfr31        00000
__Lsfr4                                   sfr4         00000
__Lsfr5                                   sfr5         00000
__Lsfr6                                   sfr6         00000
__Lsfr7                                   sfr7         00000
__Lsfr8                                   sfr8         00000
__Lsfr9                                   sfr9         00000
__Lspace_0                                (abs)        00000
__Lspace_1                                (abs)        00000
__Lspace_2                                (abs)        00000
__Lspace_3                                (abs)        00000
__Lspace_4                                (abs)        00000
__Lstack                                  stack        00000
__Lstrings                                strings      00000
__Lstringtext1                            stringtext1  00000
__Lstringtext2                            stringtext2  00000
__Lstringtext3                            stringtext3  00000
__Lstringtext4                            stringtext4  00000
__Lstringtext5                            stringtext5  00000
__Ltext                                   text         00000
__S0                                      (abs)        01834
__S1                                      (abs)        0015D
__S2                                      (abs)        00000
__S3                                      (abs)        00000
___aodiv                                  text13       00EFB
___aodiv@counter                          cstackBANK0  00031
___aodiv@dividend                         cstackBANK0  00028
___aodiv@divisor                          cstackBANK0  00020
___aodiv@quotient                         cstackBANK0  00033
___aodiv@sign                             cstackBANK0  00032
___aomod                                  text12       00E0E
___aomod@counter                          cstackBANK0  00031
___aomod@dividend                         cstackBANK0  00028
___aomod@divisor                          cstackBANK0  00020
___aomod@sign                             cstackBANK0  00032
___int_sp                                 stack        00000
___latbits                                (abs)        00002
___sp                                     stack        00000
___stackhi                                (abs)        023EF
___stacklo                                (abs)        020DD
___wmul                                   text17       017BF
___wmul@multiplicand                      cstackBANK0  00022
___wmul@multiplier                        cstackBANK0  00020
___wmul@product                           cstackBANK0  00024
__end_of_ADCC_GetSingleConversion         text52       016EF
__end_of_ADCC_Initialize                  text32       01719
__end_of_DATAEE_ReadByte                  text22       016CC
__end_of_DATAEE_WriteByte                 text24       0087E
__end_of_I2C1_Initialize                  text31       0168A
__end_of_INTERRUPT_InterruptManager       intentry     00018
__end_of_LCDbusy                          text42       01702
__end_of_LCDchar                          text36       0166E
__end_of_LCDcmd                           text38       0165D
__end_of_LCDinit                          text39       00BFA
__end_of_LCDpos                           text37       01784
__end_of_LCDrecv                          text43       00358
__end_of_LCDsend                          text41       00A6D
__end_of_LCDsend2x4                       text40       00E0E
__end_of_LCDstr                           text35       0174D
__end_of_OSCILLATOR_Initialize            text30       01677
__end_of_OpenI2C                          text34       016AF
__end_of_PIN_MANAGER_Initialize           text29       0097A
__end_of_PMD_Initialize                   text28       01665
__end_of_ReadI2C                          text45       017BF
__end_of_S1                               text33       01695
__end_of_SYSTEM_Initialize                text25       00815
__end_of_TMR1_CallBack                    text49       016A2
__end_of_TMR1_DefaultInterruptHandler     text50       00800
__end_of_TMR1_ISR                         text47       016BD
__end_of_TMR1_Initialize                  text26       01800
__end_of_TMR1_SetInterruptHandler         text27       01680
__end_of_TMR1_WriteTimer                  text48       016DD
__end_of_WriteI2C                         text44       00B1D
__end_of___aodiv                          text13       01000
__end_of___aomod                          text12       00EFB
__end_of___wmul                           text17       017DF
__end_of__initialization                  cinit        0002B
__end_of_abs                              text11       017A0
__end_of_atoi                             text14       00D37
__end_of_dtoa                             text5        004BC
__end_of_fputc                            text9        00A1A
__end_of_fputs                            text8        008CF
__end_of_i2c1_fsmStateTable               stringtext1  01820
__end_of_initializeEPROM                  text23       00C88
__end_of_isdigit                          text16       01732
__end_of_isspace                          text15       00837
__end_of_main                             maintext     00745
__end_of_operADDR                         text20       00935
__end_of_pad                              text6        00AC3
__end_of_parseEPROMInitialization         text21       007FE
__end_of_parseEPROMReading                text19       00B77
__end_of_putch                            text10       007FF
__end_of_readTC74                         text18       0060C
__end_of_sprintf                          text2        0085A
__end_of_storeEPROMBuild                  text1        009C9
__end_of_strlen                           text7        01768
__end_of_timerInterrupt                   text51       008A6
__end_of_vfpfcnvrt                        text4        001CD
__end_of_vfprintf                         text3        008FE
__initialization                          cinit        0001A
__pbssBANK1                               bssBANK1     000E9
__pbssBANK2                               bssBANK2     00120
__pbssCOMMON                              bssCOMMON    00075
__pcstackBANK0                            cstackBANK0  00020
__pcstackBANK1                            cstackBANK1  000A0
__pcstackCOMMON                           cstackCOMMON 00070
__pintentry                               intentry     00004
__pmaintext                               maintext     0060C
__pnvBANK1                                nvBANK1      000E5
__pstringtext1                            stringtext1  01800
__pstringtext2                            stringtext2  01820
__pstringtext3                            stringtext3  01828
__pstringtext4                            stringtext4  0182F
__pstringtext5                            stringtext5  00000
__ptext1                                  text1        0097A
__ptext10                                 text10       007FE
__ptext11                                 text11       01784
__ptext12                                 text12       00E0E
__ptext13                                 text13       00EFB
__ptext14                                 text14       00C88
__ptext15                                 text15       00815
__ptext16                                 text16       01719
__ptext17                                 text17       017BF
__ptext18                                 text18       004BC
__ptext19                                 text19       00B1D
__ptext2                                  text2        00837
__ptext20                                 text20       008FE
__ptext21                                 text21       00745
__ptext22                                 text22       016BD
__ptext23                                 text23       00BFA
__ptext24                                 text24       0085A
__ptext25                                 text25       00802
__ptext26                                 text26       017DF
__ptext27                                 text27       01677
__ptext28                                 text28       0165D
__ptext29                                 text29       00935
__ptext3                                  text3        008CF
__ptext30                                 text30       0166E
__ptext31                                 text31       01680
__ptext32                                 text32       01702
__ptext33                                 text33       0168A
__ptext34                                 text34       016A2
__ptext35                                 text35       01732
__ptext36                                 text36       01665
__ptext37                                 text37       01768
__ptext38                                 text38       01655
__ptext39                                 text39       00B77
__ptext4                                  text4        0002F
__ptext40                                 text40       00D37
__ptext41                                 text41       00A1A
__ptext42                                 text42       016EF
__ptext43                                 text43       001CD
__ptext44                                 text44       00AC3
__ptext45                                 text45       017A0
__ptext47                                 text47       016AF
__ptext48                                 text48       016CC
__ptext49                                 text49       01695
__ptext5                                  text5        00358
__ptext50                                 text50       007FF
__ptext51                                 text51       0087E
__ptext52                                 text52       016DD
__ptext6                                  text6        00A6D
__ptext7                                  text7        0174D
__ptext8                                  text8        008A6
__ptext9                                  text9        009C9
__size_of_ADCC_GetSingleConversion        (abs)        00000
__size_of_ADCC_Initialize                 (abs)        00000
__size_of_DATAEE_ReadByte                 (abs)        00000
__size_of_DATAEE_WriteByte                (abs)        00000
__size_of_I2C1_Initialize                 (abs)        00000
__size_of_INTERRUPT_InterruptManager      (abs)        00000
__size_of_LCDbusy                         (abs)        00000
__size_of_LCDchar                         (abs)        00000
__size_of_LCDcmd                          (abs)        00000
__size_of_LCDinit                         (abs)        00000
__size_of_LCDpos                          (abs)        00000
__size_of_LCDrecv                         (abs)        00000
__size_of_LCDsend                         (abs)        00000
__size_of_LCDsend2x4                      (abs)        00000
__size_of_LCDstr                          (abs)        00000
__size_of_OSCILLATOR_Initialize           (abs)        00000
__size_of_OpenI2C                         (abs)        00000
__size_of_PIN_MANAGER_Initialize          (abs)        00000
__size_of_PMD_Initialize                  (abs)        00000
__size_of_ReadI2C                         (abs)        00000
__size_of_S1                              (abs)        00000
__size_of_SYSTEM_Initialize               (abs)        00000
__size_of_TMR1_CallBack                   (abs)        00000
__size_of_TMR1_DefaultInterruptHandler    (abs)        00000
__size_of_TMR1_ISR                        (abs)        00000
__size_of_TMR1_Initialize                 (abs)        00000
__size_of_TMR1_SetInterruptHandler        (abs)        00000
__size_of_TMR1_WriteTimer                 (abs)        00000
__size_of_WriteI2C                        (abs)        00000
__size_of___aodiv                         (abs)        00000
__size_of___aomod                         (abs)        00000
__size_of___wmul                          (abs)        00000
__size_of_abs                             (abs)        00000
__size_of_atoi                            (abs)        00000
__size_of_dtoa                            (abs)        00000
__size_of_fputc                           (abs)        00000
__size_of_fputs                           (abs)        00000
__size_of_initializeEPROM                 (abs)        00000
__size_of_isdigit                         (abs)        00000
__size_of_isspace                         (abs)        00000
__size_of_main                            (abs)        00000
__size_of_operADDR                        (abs)        00000
__size_of_pad                             (abs)        00000
__size_of_parseEPROMInitialization        (abs)        00000
__size_of_parseEPROMReading               (abs)        00000
__size_of_putch                           (abs)        00000
__size_of_readTC74                        (abs)        00000
__size_of_sprintf                         (abs)        00000
__size_of_storeEPROMBuild                 (abs)        00000
__size_of_strlen                          (abs)        00000
__size_of_timerInterrupt                  (abs)        00000
__size_of_vfpfcnvrt                       (abs)        00000
__size_of_vfprintf                        (abs)        00000
_abs                                      text11       01784
_atoi                                     text14       00C88
_atoi$2938                                cstackBANK0  0002E
_atoi$2939                                cstackBANK0  00032
_atoi$2940                                cstackBANK0  00030
_dbuf                                     bssBANK2     0013D
_dtoa                                     text5        00358
_dtoa$2903                                cstackBANK0  00047
_flags                                    bssCOMMON    00077
_fputc                                    text9        009C9
_fputs                                    text8        008A6
_i2c1_fsmStateTable                       stringtext1  01800
_initializeEPROM                          text23       00BFA
_isdigit                                  text16       01719
_isspace                                  text15       00815
_isspace$2956                             cstackBANK0  00024
_main                                     maintext     0060C
_nout                                     bssBANK1     000E9
_operADDR                                 text20       008FE
_pad                                      text6        00A6D
_parseEPROMInitialization                 text21       00745
_parseEPROMReading                        text19       00B1D
_prec                                     bssCOMMON    00075
_putch                                    text10       007FE
_rd1RegCompleteHandler                    (abs)        00000
_rd2RegCompleteHandler                    (abs)        00000
_rdBlkRegCompleteHandler                  (abs)        00000
_readTC74                                 text18       004BC
_sprintf                                  text2        00837
_storeEPROMBuild                          text1        0097A
_strlen                                   text7        0174D
_timer1ReloadVal                          nvBANK1      000E7
_timerInterrupt                           text51       0087E
_vfpfcnvrt                                text4        0002F
_vfpfcnvrt$2918                           cstackBANK0  0006B
_vfprintf                                 text3        008CF
_width                                    bssBANK1     000EB
_wr1RegCompleteHandler                    (abs)        00000
_wr2RegCompleteHandler                    (abs)        00000
abs@a                                     cstackBANK0  00033
atoi@n                                    cstackBANK0  00033
atoi@neg                                  cstackBANK0  0002C
atoi@s                                    cstackBANK0  00026
btemp                                     (abs)        0007E
clear_ram0                                clrtext      0164F
dtoa@d                                    cstackBANK0  0003B
dtoa@fp                                   cstackBANK0  00046
dtoa@i                                    cstackBANK0  00057
dtoa@n                                    cstackBANK0  0004F
dtoa@p                                    cstackBANK0  00049
dtoa@s                                    cstackBANK0  0004D
dtoa@w                                    cstackBANK0  0004B
end_of_initialization                     cinit        0002B
fputc@c                                   cstackBANK0  00020
fputc@fp                                  cstackBANK0  00022
fputs@c                                   cstackBANK0  0002C
fputs@fp                                  cstackBANK0  00028
fputs@i                                   cstackBANK0  0002D
fputs@s                                   cstackBANK0  0002F
int$flags                                 (abs)        0007E
intlevel0                                 functab      00000
intlevel1                                 functab      00000
intlevel2                                 functab      00000
intlevel3                                 functab      00000
intlevel4                                 functab      00000
intlevel5                                 functab      00000
isdigit@c                                 cstackBANK0  00020
isspace@c                                 cstackBANK0  00020
main@ALAF                                 cstackBANK1  000E1
main@ALAL                                 cstackBANK1  000E0
main@ALAT                                 cstackBANK1  000DF
main@CLKH                                 cstackBANK1  000E2
main@CLKM                                 cstackBANK1  000E3
main@NR                                   cstackBANK1  000DA
main@NREG                                 cstackBANK1  000D9
main@PMON                                 cstackBANK1  000DD
main@RI                                   cstackBANK1  000DC
main@TALA                                 cstackBANK1  000DE
main@WI                                   cstackBANK1  000DB
main@buf                                  cstackBANK1  000BE
main@c                                    cstackBANK1  000D1
main@checksum                             cstackBANK1  000E4
main@dataeeData                           cstackBANK1  000D2
main@hours                                cstackBANK1  000D3
main@luminosity                           cstackBANK1  000D7
main@magic_word                           cstackBANK1  000D8
main@minutes                              cstackBANK1  000D4
main@readRingBufferAddr                   cstackBANK1  000CF
main@seconds                              cstackBANK1  000D5
main@temperature                          cstackBANK1  000D6
operADDR@dataAddr                         cstackBANK0  00025
operADDR@operation                        cstackBANK0  00024
pad@buf                                   cstackBANK0  00030
pad@fp                                    cstackBANK0  00038
pad@i                                     cstackBANK0  00034
pad@p                                     cstackBANK0  00031
pad@w                                     cstackBANK0  00036
parseEPROMInitialization@ALAF             cstackBANK0  0002A
parseEPROMInitialization@ALAL             cstackBANK0  00029
parseEPROMInitialization@ALAT             cstackBANK0  00028
parseEPROMInitialization@CLKH             cstackBANK0  0002B
parseEPROMInitialization@CLKM             cstackBANK0  0002C
parseEPROMInitialization@NR               cstackBANK0  00023
parseEPROMInitialization@NREG             cstackBANK0  00022
parseEPROMInitialization@PMON             cstackBANK0  00026
parseEPROMInitialization@RI               cstackBANK0  00025
parseEPROMInitialization@TALA             cstackBANK0  00027
parseEPROMInitialization@WI               cstackBANK0  00024
parseEPROMInitialization@checksum         cstackBANK0  0002D
parseEPROMInitialization@magic_word       cstackBANK0  0002F
parseEPROMReading@dataAddr                cstackBANK0  0002E
parseEPROMReading@hours                   cstackBANK0  0002D
parseEPROMReading@luminosity              cstackBANK0  0002A
parseEPROMReading@minutes                 cstackBANK0  00027
parseEPROMReading@operation               cstackBANK0  0002B
parseEPROMReading@seconds                 cstackBANK0  00028
parseEPROMReading@temperature             cstackBANK0  00029
readTC74@value                            cstackBANK0  00023
reset_vec                                 reset_vec    00000
sprintf@ap                                cstackBANK1  000AC
sprintf@f                                 cstackBANK1  000AD
sprintf@fmt                               cstackBANK1  000A6
sprintf@s                                 cstackBANK1  000AB
start                                     init         00018
start_initialization                      cinit        0001A
storeEPROMBuild@dataAddr                  cstackBANK0  0002E
storeEPROMBuild@hours                     cstackBANK0  0002D
storeEPROMBuild@luminosity                cstackBANK0  0002A
storeEPROMBuild@minutes                   cstackBANK0  00027
storeEPROMBuild@operation                 cstackBANK0  0002B
storeEPROMBuild@seconds                   cstackBANK0  00028
storeEPROMBuild@temperature               cstackBANK0  00029
strlen@a                                  cstackBANK0  00023
strlen@s                                  cstackBANK0  00024
timerInterrupt@value                      cstackCOMMON 00073
vfpfcnvrt@ap                              cstackBANK0  0005A
vfpfcnvrt@done                            cstackBANK0  00069
vfpfcnvrt@fmt                             cstackBANK0  00059
vfpfcnvrt@fp                              cstackBANK0  0006D
vfpfcnvrt@ll                              cstackBANK0  00061
vfprintf@ap                               cstackBANK1  000A2
vfprintf@cfmt                             cstackBANK1  000A4
vfprintf@fmt                              cstackBANK1  000A0
vfprintf@fp                               cstackBANK1  000A3
wtemp0                                    (abs)        0007E


MODULE INFORMATION

Module		Function		Class		Link	Load	Size
D:\Program Files\Microchip\xc8\v2.32\pic\sources\c99\common\isdigit.c
		_isdigit       		CODE           	1719	0000	25

D:\Program Files\Microchip\xc8\v2.32\pic\sources\c99\common\isdigit.c estimated size: 25

D:\Program Files\Microchip\xc8\v2.32\pic\sources\c99\common\doprnt.c
		_vfpfcnvrt     		CODE           	002F	0000	414
		_pad           		CODE           	0A6D	0000	86
		_dtoa          		CODE           	0358	0000	356
		_vfprintf      		CODE           	08CF	0000	47

D:\Program Files\Microchip\xc8\v2.32\pic\sources\c99\common\doprnt.c estimated size: 903

D:\Program Files\Microchip\xc8\v2.32\pic\sources\c99\common\abs.c
		_abs           		CODE           	1784	0000	28

D:\Program Files\Microchip\xc8\v2.32\pic\sources\c99\common\abs.c estimated size: 28

D:\Program Files\Microchip\xc8\v2.32\pic\sources\c99\common\nf_fputs.c
		_fputs         		CODE           	08A6	0000	41

D:\Program Files\Microchip\xc8\v2.32\pic\sources\c99\common\nf_fputs.c estimated size: 41

D:\Program Files\Microchip\xc8\v2.32\pic\sources\c99\common\aodiv.c
		___aodiv       		CODE           	0EFB	0000	261

D:\Program Files\Microchip\xc8\v2.32\pic\sources\c99\common\aodiv.c estimated size: 261

D:\Program Files\Microchip\xc8\v2.32\pic\sources\c99\common\atoi.c
		_atoi          		CODE           	0C88	0000	175

D:\Program Files\Microchip\xc8\v2.32\pic\sources\c99\common\atoi.c estimated size: 175

D:\Program Files\Microchip\xc8\v2.32\pic\sources\c99\common\Umul16.c
		___wmul        		CODE           	17BF	0000	32

D:\Program Files\Microchip\xc8\v2.32\pic\sources\c99\common\Umul16.c estimated size: 32

mcc_generated_files/i2c1_master.c
		_I2C1_Initialize		CODE           	1680	0000	10

mcc_generated_files/i2c1_master.c estimated size: 10

mcc_generated_files/interrupt_manager.c
		_INTERRUPT_InterruptManager		CODE           	0004	0000	20

mcc_generated_files/interrupt_manager.c estimated size: 20

mcc_generated_files/pin_manager.c
		_PIN_MANAGER_Initialize		CODE           	0935	0000	69

mcc_generated_files/pin_manager.c estimated size: 69

I2C/i2c.c
		_ReadI2C       		CODE           	17A0	0000	31
		_WriteI2C      		CODE           	0AC3	0000	90
		_OpenI2C       		CODE           	16A2	0000	13

I2C/i2c.c estimated size: 134

LCD/lcd.c
		_LCDinit       		CODE           	0B77	0000	131
		_LCDsend       		CODE           	0A1A	0000	83
		_LCDsend2x4    		CODE           	0D37	0000	215
		_LCDstr        		CODE           	1732	0000	27
		_LCDchar       		CODE           	1665	0000	9
		_LCDpos        		CODE           	1768	0000	28
		_LCDbusy       		CODE           	16EF	0000	19
		_LCDrecv       		CODE           	01CD	0000	395
		_LCDcmd        		CODE           	1655	0000	8

LCD/lcd.c estimated size: 915

D:\Program Files\Microchip\xc8\v2.32\pic\sources\c99\common\nf_sprintf.c
		_sprintf       		CODE           	0837	0000	35

D:\Program Files\Microchip\xc8\v2.32\pic\sources\c99\common\nf_sprintf.c estimated size: 35

EPROMlib.c
		_storeEPROMBuild		CODE           	097A	0000	79
		_operADDR      		CODE           	08FE	0000	55
		_initializeEPROM		CODE           	0BFA	0000	142
		_parseEPROMReading		CODE           	0B1D	0000	90
		_parseEPROMInitialization		CODE           	0745	0000	185

EPROMlib.c estimated size: 551

D:\Program Files\Microchip\xc8\v2.32\pic\sources\c99\common\nf_fputc.c
		_fputc         		CODE           	09C9	0000	81

D:\Program Files\Microchip\xc8\v2.32\pic\sources\c99\common\nf_fputc.c estimated size: 81

D:\Program Files\Microchip\xc8\v2.32\pic\sources\c99\common\strlen.c
		_strlen        		CODE           	174D	0000	27

D:\Program Files\Microchip\xc8\v2.32\pic\sources\c99\common\strlen.c estimated size: 27

shared
		__initialization		CODE           	001A	0000	17
		_i2c1_fsmStateTable		STRCODE        	1800	0000	32

shared estimated size: 49

D:\Program Files\Microchip\xc8\v2.32\pic\sources\c99\common\putch.c
		_putch         		CODE           	07FE	0000	1

D:\Program Files\Microchip\xc8\v2.32\pic\sources\c99\common\putch.c estimated size: 1

mcc_generated_files/mcc.c
		_PMD_Initialize		CODE           	165D	0000	8
		_OSCILLATOR_Initialize		CODE           	166E	0000	9
		_SYSTEM_Initialize		CODE           	0802	0000	19

mcc_generated_files/mcc.c estimated size: 36

D:\Program Files\Microchip\xc8\v2.32\pic\sources\c99\common\aomod.c
		___aomod       		CODE           	0E0E	0000	237

D:\Program Files\Microchip\xc8\v2.32\pic\sources\c99\common\aomod.c estimated size: 237

mcc_generated_files/tmr1.c
		_TMR1_Initialize		CODE           	17DF	0000	33
		_TMR1_SetInterruptHandler		CODE           	1677	0000	9
		_TMR1_DefaultInterruptHandler		CODE           	07FF	0000	1
		_TMR1_CallBack 		CODE           	1695	0000	13
		_TMR1_WriteTimer		CODE           	16CC	0000	17
		_TMR1_ISR      		CODE           	16AF	0000	14

mcc_generated_files/tmr1.c estimated size: 87

D:\Program Files\Microchip\xc8\v2.32\pic\sources\c99\common\isspace.c
		_isspace       		CODE           	0815	0000	34

D:\Program Files\Microchip\xc8\v2.32\pic\sources\c99\common\isspace.c estimated size: 34

mcc_generated_files/memory.c
		_DATAEE_WriteByte		CODE           	085A	0000	36
		_DATAEE_ReadByte		CODE           	16BD	0000	15

mcc_generated_files/memory.c estimated size: 51

mcc_generated_files/adcc.c
		_ADCC_GetSingleConversion		CODE           	16DD	0000	18
		_ADCC_Initialize		CODE           	1702	0000	23

mcc_generated_files/adcc.c estimated size: 41

main.c
		_S1            		CODE           	168A	0000	11
		_main          		CODE           	060C	0000	313
		_readTC74      		CODE           	04BC	0000	336
		_timerInterrupt		CODE           	087E	0000	40

main.c estimated size: 700

